target datalayout = "e-m:e-p270:32:32-p271:32:32-p272:64:64-i64:64-i128:128-f80:128-n8:16:32:64-S128"
target triple = "x86_64-pc-linux-gnu"

%struct._GdkRGBA = type { double, double, double, double }
%struct.darktable_t = type { %struct.dt_codepath_t, i32, i32, ptr, ptr, ptr, ptr, ptr, ptr, ptr, ptr, ptr, ptr, ptr, ptr, ptr, ptr, ptr, ptr, ptr, ptr, ptr, ptr, ptr, ptr, ptr, ptr, ptr, ptr, ptr, [64 x %struct.dt_pthread_mutex_t], %struct.dt_pthread_mutex_t, %struct.dt_pthread_mutex_t, %struct.dt_pthread_mutex_t, %struct.dt_pthread_mutex_t, %struct.dt_pthread_mutex_t, ptr, ptr, ptr, ptr, ptr, ptr, ptr, ptr, ptr, ptr, ptr, ptr, ptr, %struct.dt_lua_state_t, ptr, double, ptr, i32, [47 x i32], i32, i32, ptr, ptr, %struct.dt_sys_resources_t, %struct.dt_backthumb_t, %struct.dt_gimp_t }
%struct.dt_codepath_t = type { i8, [3 x i8] }
%struct.dt_pthread_mutex_t = type { %union.pthread_mutex_t }
%union.pthread_mutex_t = type { %struct.__pthread_mutex_s }
%struct.__pthread_mutex_s = type { i32, i32, i32, i32, i32, i16, i16, %struct.__pthread_internal_list }
%struct.__pthread_internal_list = type { ptr, ptr }
%struct.dt_lua_state_t = type { i32 }
%struct.dt_sys_resources_t = type { i64, i64, ptr, ptr, i32 }
%struct.dt_backthumb_t = type { double, double, i32, i32, i32, i32 }
%struct.dt_gimp_t = type { i32, ptr, ptr, i32, i32 }
%struct.dt_iop_module_t = type { i32, ptr, ptr, ptr, ptr, ptr, ptr, ptr, ptr, ptr, ptr, ptr, ptr, ptr, ptr, ptr, ptr, ptr, ptr, ptr, ptr, ptr, ptr, ptr, ptr, ptr, ptr, ptr, ptr, ptr, ptr, ptr, ptr, ptr, ptr, ptr, ptr, ptr, ptr, ptr, ptr, ptr, ptr, ptr, ptr, ptr, ptr, ptr, ptr, ptr, ptr, ptr, ptr, ptr, ptr, ptr, ptr, [20 x i8], i32, i32, i32, i32, i32, i32, i32, [8 x i8], [4 x float], [4 x float], [4 x float], [4 x float], [4 x float], [4 x float], ptr, %struct.dt_dev_histogram_stats_t, [4 x i32], i32, i32, ptr, i32, i32, ptr, ptr, i32, ptr, %struct.dt_pthread_mutex_t, ptr, ptr, ptr, ptr, %struct.anon, ptr, ptr, ptr, ptr, ptr, ptr, ptr, i32, ptr, ptr, ptr, ptr, ptr, ptr, ptr, i32, ptr, i32, [128 x i8], i32, ptr, ptr, i32, [12 x i8] }
%struct.dt_dev_histogram_stats_t = type { i32, i64, i32, i32 }
%struct.anon = type { %struct.anon.0, %struct.anon.1 }
%struct.anon.0 = type { ptr, ptr }
%struct.anon.1 = type { ptr, i32 }
%struct.dt_gui_gtk_t = type { ptr, %struct.dt_gui_widgets_t, %struct.dt_gui_scrollbars_t, i32, ptr, i32, [39 x %struct._GdkRGBA], i32, i32, i32, i32, i32, double, double, double, double, ptr, double, double, double, double, i32, i32, [4096 x i8], i32, i32, i32, %struct.dt_pthread_mutex_t }
%struct.dt_gui_widgets_t = type { ptr, ptr, ptr, ptr, i32, i32, i32 }
%struct.dt_gui_scrollbars_t = type { ptr, ptr, i32 }
%struct.dt_develop_blend_params_t = type { i32, i32, i32, float, float, i32, i32, i32, float, i32, float, float, float, float, i32, [2 x i32], [64 x float], [16 x float], [20 x i8], i32, i32, i32 }

@darktable = external global %struct.darktable_t, align 8

; Function Attrs: nounwind uwtable
define internal i32 @_blendop_masks_polarity_callback(ptr noundef %0, ptr noundef %1, ptr noundef %2) #0 {
  %4 = alloca i32, align 4
  %5 = alloca ptr, align 8
  %6 = alloca ptr, align 8
  %7 = alloca ptr, align 8
  %8 = alloca i32, align 4
  %9 = alloca ptr, align 8
  store ptr %0, ptr %5, align 8, !tbaa !187
  store ptr %1, ptr %6, align 8, !tbaa !172
  store ptr %2, ptr %7, align 8, !tbaa !6
  %10 = load ptr, ptr getelementptr inbounds nuw (%struct.darktable_t, ptr @darktable, i32 0, i32 14), align 8, !tbaa !39
  %11 = getelementptr inbounds nuw %struct.dt_gui_gtk_t, ptr %10, i32 0, i32 5
  %12 = load i32, ptr %11, align 8, !tbaa !72
  %13 = icmp ne i32 %12, 0
  br i1 %13, label %14, label %15

14:                                               ; preds = %3
  store i32 1, ptr %4, align 4
  br label %44

15:                                               ; preds = %3
  call void @llvm.lifetime.start.p0(i64 4, ptr %8) #11
  %16 = load ptr, ptr %5, align 8, !tbaa !187
  %17 = call i32 @gtk_toggle_button_get_active(ptr noundef %16)
  %18 = icmp ne i32 %17, 0
  %19 = xor i1 %18, true
  %20 = zext i1 %19 to i32
  store i32 %20, ptr %8, align 4, !tbaa !80
  %21 = load ptr, ptr %5, align 8, !tbaa !187
  %22 = load i32, ptr %8, align 4, !tbaa !80
  call void @gtk_toggle_button_set_active(ptr noundef %21, i32 noundef %22)
  call void @llvm.lifetime.start.p0(i64 8, ptr %9) #11
  %23 = load ptr, ptr %7, align 8, !tbaa !6
  %24 = getelementptr inbounds nuw %struct.dt_iop_module_t, ptr %23, i32 0, i32 86
  %25 = load ptr, ptr %24, align 8, !tbaa !77
  store ptr %25, ptr %9, align 8, !tbaa !78
  %26 = load i32, ptr %8, align 4, !tbaa !80
  %27 = icmp ne i32 %26, 0
  br i1 %27, label %28, label %33

28:                                               ; preds = %15
  %29 = load ptr, ptr %9, align 8, !tbaa !78
  %30 = getelementptr inbounds nuw %struct.dt_develop_blend_params_t, ptr %29, i32 0, i32 5
  %31 = load i32, ptr %30, align 4, !tbaa !131
  %32 = or i32 %31, 4
  store i32 %32, ptr %30, align 4, !tbaa !131
  br label %38

33:                                               ; preds = %15
  %34 = load ptr, ptr %9, align 8, !tbaa !78
  %35 = getelementptr inbounds nuw %struct.dt_develop_blend_params_t, ptr %34, i32 0, i32 5
  %36 = load i32, ptr %35, align 4, !tbaa !131
  %37 = and i32 %36, -5
  store i32 %37, ptr %35, align 4, !tbaa !131
  br label %38

38:                                               ; preds = %33, %28
  %39 = load ptr, ptr getelementptr inbounds nuw (%struct.darktable_t, ptr @darktable, i32 0, i32 9), align 8, !tbaa !132
  %40 = load ptr, ptr %7, align 8, !tbaa !6
  call void @dt_dev_add_history_item(ptr noundef %39, ptr noundef %40, i32 noundef 1)
  %41 = load ptr, ptr %5, align 8, !tbaa !187
  %42 = call i64 @gtk_widget_get_type() #12
  %43 = call ptr @g_type_check_instance_cast(ptr noundef %41, i64 noundef %42)
  call void @dt_control_queue_redraw_widget(ptr noundef %43)
  store i32 1, ptr %4, align 4
  call void @llvm.lifetime.end.p0(i64 8, ptr %9) #11
  call void @llvm.lifetime.end.p0(i64 4, ptr %8) #11
  br label %44

44:                                               ; preds = %38, %14
  %45 = load i32, ptr %4, align 4
  ret i32 %45
}