; Function Attrs: nounwind uwtable
define internal noundef i32 @_blendop_masks_polarity_callback(ptr noundef %0, ptr readnone captures(none) %1, ptr noundef %2) #0 {
  %4 = load ptr, ptr getelementptr inbounds nuw (i8, ptr @darktable, i64 104), align 8, !tbaa !33
  %5 = getelementptr inbounds nuw i8, ptr %4, i64 96
  %6 = load i32, ptr %5, align 8, !tbaa !66
  %.not = icmp eq i32 %6, 0
  br i1 %.not, label %7, label %18

7:                                                ; preds = %3
  %8 = tail call i32 @gtk_toggle_button_get_active(ptr noundef %0) #18
  %.not9 = icmp eq i32 %8, 0
  %9 = zext i1 %.not9 to i32
  tail call void @gtk_toggle_button_set_active(ptr noundef %0, i32 noundef %9) #18
  %10 = getelementptr inbounds nuw i8, ptr %2, i64 760
  %11 = load ptr, ptr %10, align 8, !tbaa !71
  %12 = getelementptr inbounds nuw i8, ptr %11, i64 20
  %13 = load i32, ptr %12, align 4, !tbaa !118
  %14 = and i32 %13, -5
  %masksel = select i1 %.not9, i32 4, i32 0
  %.sink = or disjoint i32 %14, %masksel
  store i32 %.sink, ptr %12, align 4, !tbaa !118
  %15 = load ptr, ptr getelementptr inbounds nuw (i8, ptr @darktable, i64 64), align 8, !tbaa !119
  tail call void @dt_dev_add_history_item(ptr noundef %15, ptr noundef nonnull %2, i32 noundef 1) #18
  %16 = tail call i64 @gtk_widget_get_type() #19
  %17 = tail call ptr @g_type_check_instance_cast(ptr noundef %0, i64 noundef %16) #18
  tail call void @dt_control_queue_redraw_widget(ptr noundef %17) #18
  br label %18

18:                                               ; preds = %3, %7
  ret i32 1
}